; Function Attrs: nounwind sspstrong uwtable
define internal void @tpci200_class_init(ptr noundef %klass, ptr readnone captures(none) %data) #0 {
entry:
  %call.i = tail call ptr @object_class_dynamic_cast_assert(ptr noundef %klass, ptr noundef nonnull @.str.4, ptr noundef nonnull @.str.5, i32 noundef 77, ptr noundef nonnull @__func__.DEVICE_CLASS) #6
  %call.i9 = tail call ptr @object_class_dynamic_cast_assert(ptr noundef %klass, ptr noundef nonnull @.str.1, ptr noundef nonnull @.str.6, i32 noundef 10, ptr noundef nonnull @__func__.PCI_DEVICE_CLASS) #6
  %realize = getelementptr inbounds nuw i8, ptr %call.i9, i64 176
  store ptr @tpci200_realize, ptr %realize, align 8
  %vendor_id = getelementptr inbounds nuw i8, ptr %call.i9, i64 208
  store i16 5272, ptr %vendor_id, align 8
  %device_id = getelementptr inbounds nuw i8, ptr %call.i9, i64 210
  store i16 12488, ptr %device_id, align 2
  %class_id = getelementptr inbounds nuw i8, ptr %call.i9, i64 214
  store i16 1664, ptr %class_id, align 2
  %subsystem_vendor_id = getelementptr inbounds nuw i8, ptr %call.i9, i64 216
  store i16 5272, ptr %subsystem_vendor_id, align 8
  %subsystem_id = getelementptr inbounds nuw i8, ptr %call.i9, i64 218
  store i16 12298, ptr %subsystem_id, align 2
  %categories = getelementptr inbounds nuw i8, ptr %call.i, i64 96
  %0 = load i64, ptr %categories, align 8
  %or.i = or i64 %0, 16
  store i64 %or.i, ptr %categories, align 8
  %desc = getelementptr inbounds nuw i8, ptr %call.i, i64 112
  store ptr @.str.3, ptr %desc, align 8
  %vmsd = getelementptr inbounds nuw i8, ptr %call.i, i64 160
  store ptr @vmstate_tpci200, ptr %vmsd, align 8
  ret void
}